target datalayout = "e-m:e-p270:32:32-p271:32:32-p272:64:64-i64:64-i128:128-f80:128-n8:16:32:64-S128"
target triple = "x86_64-pc-linux-gnu"

%class.LogTagSet = type { ptr, i64, [5 x i32], [4 x i8], %class.LogOutputList, %class.LogDecorators, ptr }
%class.LogOutputList = type <{ [6 x ptr], i32, [4 x i8] }>
%class.LogDecorators = type { i32 }

@RequireSharedSpaces = external global i8, align 1
@.str.93 = private unnamed_addr constant [66 x i8] c"Class data sharing is inconsistent with other specified options.\0A\00", align 1
@.str.94 = private unnamed_addr constant [29 x i8] c"Unable to use shared archive\00", align 1
@.str.95 = private unnamed_addr constant [33 x i8] c"Unable to use shared archive: %s\00", align 1
@UseSharedSpaces = external global i8, align 1
@_ZN16LogTagSetMappingILN6LogTag4typeE14ELS1_0ELS1_0ELS1_0ELS1_0ELS1_0EE7_tagsetE = linkonce_odr hidden global %class.LogTagSet zeroinitializer, comdat, align 8
@DisplayVMOutputToStdout = external global i8, align 1
@_ZN13defaultStream14_output_streamE = external global ptr, align 8
@_ZN13defaultStream13_error_streamE = external global ptr, align 8

; Function Attrs: mustprogress nounwind uwtable
define linkonce_odr hidden noundef zeroext i1 @_ZNK13LogOutputList8is_levelEN8LogLevel4typeE(ptr noundef nonnull align 8 dereferenceable(52) %0, i32 noundef %1) #1 comdat align 2 {
  %3 = alloca ptr, align 8
  %4 = alloca i32, align 4
  store ptr %0, ptr %3, align 8
  store i32 %1, ptr %4, align 4
  %5 = load ptr, ptr %3, align 8
  %6 = getelementptr inbounds %class.LogOutputList, ptr %5, i32 0, i32 0
  %7 = load i32, ptr %4, align 4
  %8 = zext i32 %7 to i64
  %9 = getelementptr inbounds [6 x ptr], ptr %6, i64 0, i64 %8
  %10 = load volatile ptr, ptr %9, align 8
  %11 = icmp ne ptr %10, null
  ret i1 %11
}

; Function Attrs: mustprogress nounwind uwtable
define linkonce_odr hidden noundef zeroext i1 @_ZNK9LogTagSet8is_levelEN8LogLevel4typeE(ptr noundef nonnull align 8 dereferenceable(112) %0, i32 noundef %1) #1 comdat align 2 {
  %3 = alloca ptr, align 8
  %4 = alloca i32, align 4
  store ptr %0, ptr %3, align 8
  store i32 %1, ptr %4, align 4
  %5 = load ptr, ptr %3, align 8
  %6 = getelementptr inbounds %class.LogTagSet, ptr %5, i32 0, i32 4
  %7 = load i32, ptr %4, align 4
  %8 = call noundef zeroext i1 @_ZNK13LogOutputList8is_levelEN8LogLevel4typeE(ptr noundef nonnull align 8 dereferenceable(52) %6, i32 noundef %7)
  ret i1 %8
}

; Function Attrs: mustprogress nounwind uwtable
define linkonce_odr hidden noundef nonnull align 8 dereferenceable(112) ptr @_ZN16LogTagSetMappingILN6LogTag4typeE14ELS1_0ELS1_0ELS1_0ELS1_0ELS1_0EE6tagsetEv() #1 comdat align 2 {
  ret ptr @_ZN16LogTagSetMappingILN6LogTag4typeE14ELS1_0ELS1_0ELS1_0ELS1_0ELS1_0EE7_tagsetE
}

; Function Attrs: mustprogress nounwind uwtable
define linkonce_odr hidden noundef zeroext i1 @_ZN7LogImplILN6LogTag4typeE14ELS1_0ELS1_0ELS1_0ELS1_0ELS1_0EE8is_levelEN8LogLevel4typeE(i32 noundef %0) #1 comdat align 2 {
  %2 = alloca i32, align 4
  store i32 %0, ptr %2, align 4
  %3 = call noundef nonnull align 8 dereferenceable(112) ptr @_ZN16LogTagSetMappingILN6LogTag4typeE14ELS1_0ELS1_0ELS1_0ELS1_0ELS1_0EE6tagsetEv()
  %4 = load i32, ptr %2, align 4
  %5 = call noundef zeroext i1 @_ZNK9LogTagSet8is_levelEN8LogLevel4typeE(ptr noundef nonnull align 8 dereferenceable(112) %3, i32 noundef %4)
  ret i1 %5
}

; Function Attrs: mustprogress nounwind uwtable
define linkonce_odr hidden noundef ptr @_ZN13defaultStream12error_streamEv() #1 comdat align 2 {
  %1 = load i8, ptr @DisplayVMOutputToStdout, align 1
  %2 = trunc i8 %1 to i1
  br i1 %2, label %3, label %5

3:                                                ; preds = %0
  %4 = load ptr, ptr @_ZN13defaultStream14_output_streamE, align 8
  br label %7

5:                                                ; preds = %0
  %6 = load ptr, ptr @_ZN13defaultStream13_error_streamE, align 8
  br label %7

7:                                                ; preds = %5, %3
  %8 = phi ptr [ %4, %3 ], [ %6, %5 ]
  ret ptr %8
}

; Function Attrs: mustprogress nounwind uwtable
define hidden void @_ZN9Arguments16no_shared_spacesEPKc(ptr noundef %0) #1 align 2 {
  %2 = alloca ptr, align 8
  store ptr %0, ptr %2, align 8
  %3 = load i8, ptr @RequireSharedSpaces, align 1
  %4 = trunc i8 %3 to i1
  br i1 %4, label %5, label %9

5:                                                ; preds = %1
  %6 = call noundef ptr @_ZN13defaultStream12error_streamEv()
  %7 = call i32 (ptr, ptr, ...) @jio_fprintf(ptr noundef %6, ptr noundef @.str.93)
  %8 = load ptr, ptr %2, align 8
  call void @_Z29vm_exit_during_initializationPKcS0_(ptr noundef @.str.94, ptr noundef %8)
  br label %15

9:                                                ; preds = %1
  %10 = call noundef zeroext i1 @_ZN7LogImplILN6LogTag4typeE14ELS1_0ELS1_0ELS1_0ELS1_0ELS1_0EE8is_levelEN8LogLevel4typeE(i32 noundef 3)
  br i1 %10, label %12, label %11

11:                                               ; preds = %9
  br label %14

12:                                               ; preds = %9
  %13 = load ptr, ptr %2, align 8
  call void (ptr, ...) @_ZN7LogImplILN6LogTag4typeE14ELS1_0ELS1_0ELS1_0ELS1_0ELS1_0EE5writeILN8LogLevel4typeE3EEEvPKcz(ptr noundef @.str.95, ptr noundef %13)
  br label %14

14:                                               ; preds = %12, %11
  store i8 0, ptr @UseSharedSpaces, align 1
  br label %15

15:                                               ; preds = %14, %5
  ret void
}