; Function Attrs: mustprogress nounwind uwtable
define hidden void @_ZN9Arguments16no_shared_spacesEPKc(ptr noundef %0) local_unnamed_addr #0 align 2 {
  %2 = load i8, ptr @RequireSharedSpaces, align 1
  %3 = trunc i8 %2 to i1
  br i1 %3, label %4, label %11

4:                                                ; preds = %1
  %5 = load i8, ptr @DisplayVMOutputToStdout, align 1
  %6 = trunc i8 %5 to i1
  %7 = load ptr, ptr @_ZN13defaultStream14_output_streamE, align 8
  %8 = load ptr, ptr @_ZN13defaultStream13_error_streamE, align 8
  %9 = select i1 %6, ptr %7, ptr %8
  %10 = tail call i32 (ptr, ptr, ...) @jio_fprintf(ptr noundef %9, ptr noundef nonnull @.str.93) #31
  tail call void @_Z29vm_exit_during_initializationPKcS0_(ptr noundef nonnull @.str.94, ptr noundef %0) #31
  br label %15

11:                                               ; preds = %1
  %12 = load volatile ptr, ptr getelementptr inbounds (i8, ptr @_ZN16LogTagSetMappingILN6LogTag4typeE14ELS1_0ELS1_0ELS1_0ELS1_0ELS1_0EE7_tagsetE, i64 64), align 8
  %.not = icmp eq ptr %12, null
  br i1 %.not, label %14, label %13

13:                                               ; preds = %11
  tail call void (ptr, ...) @_ZN7LogImplILN6LogTag4typeE14ELS1_0ELS1_0ELS1_0ELS1_0ELS1_0EE5writeILN8LogLevel4typeE3EEEvPKcz(ptr noundef nonnull @.str.95, ptr noundef %0)
  br label %14

14:                                               ; preds = %11, %13
  store i8 0, ptr @UseSharedSpaces, align 1
  br label %15

15:                                               ; preds = %14, %4
  ret void
}